; Function Attrs: mustprogress nounwind uwtable
define dso_local void @_ZN4node2fs18FileHandleReadWrapD0Ev(ptr noundef nonnull align 8 dereferenceable(552) %this) unnamed_addr #3 align 2 {
entry:
  %0 = getelementptr inbounds i8, ptr %this, i64 56
  store ptr getelementptr inbounds ({ [6 x ptr] }, ptr @_ZTVN4node11ReqWrapBaseE, i64 0, i32 0, i64 2), ptr %0, align 8
  %req_wrap_queue_.i.i.i = getelementptr inbounds i8, ptr %this, i64 64
  %next_.i.i.i.i.i = getelementptr inbounds i8, ptr %this, i64 72
  %1 = load ptr, ptr %next_.i.i.i.i.i, align 8
  %2 = load ptr, ptr %req_wrap_queue_.i.i.i, align 8
  %next_2.i.i.i.i.i = getelementptr inbounds i8, ptr %2, i64 8
  store ptr %1, ptr %next_2.i.i.i.i.i, align 8
  %3 = load ptr, ptr %req_wrap_queue_.i.i.i, align 8
  store ptr %3, ptr %1, align 8
  store ptr %req_wrap_queue_.i.i.i, ptr %req_wrap_queue_.i.i.i, align 8
  store ptr %req_wrap_queue_.i.i.i, ptr %next_.i.i.i.i.i, align 8
  tail call void @_ZN4node9AsyncWrapD2Ev(ptr noundef nonnull align 8 dereferenceable(56) %this) #30
  tail call void @_ZdlPv(ptr noundef nonnull %this) #31
  ret void
}